target datalayout = "e-m:e-p270:32:32-p271:32:32-p272:64:64-i64:64-i128:128-f80:128-n8:16:32:64-S128"
target triple = "x86_64-pc-linux-gnu"

%class.QString = type { %struct.QArrayDataPointer }
%struct.QArrayDataPointer = type { ptr, ptr, i64 }
%class.ImportTextDialog = type <{ %class.QDialog, ptr, %class.QMap, ptr, ptr, %struct.text_import_info_t, %class.QString, i8, i8, i8, i8, i8, i8, i8, i8, i8, i8, i8, i8, i8, i8, i8, i8, i8, [7 x i8] }>
%class.QDialog = type { %class.QWidget }
%class.QWidget = type { %class.QObject, %class.QPaintDevice.base, ptr }
%class.QObject = type { ptr, %class.QScopedPointer }
%class.QScopedPointer = type { ptr }
%class.QPaintDevice.base = type <{ ptr, i16 }>
%class.QMap = type { %"class.QtPrivate::QExplicitlySharedDataPointerV2" }
%"class.QtPrivate::QExplicitlySharedDataPointerV2" = type { ptr }
%struct.text_import_info_t = type { ptr, ptr, i32, %struct.anon, %struct.anon.0, ptr, i32, ptr, i32, i32, i8, %union.anon, %union.anon.1, i32, i32, i32, i32, i32, ptr, i32, i32, i32 }
%struct.anon = type { ptr, i32, i8, i8, i8 }
%struct.anon.0 = type { ptr, ptr, i32, ptr, ptr }
%union.anon = type { i32, [12 x i8] }
%union.anon.1 = type { i32, [12 x i8] }

; Function Attrs: mustprogress null_pointer_is_valid sspstrong uwtable
define void @_ZN16ImportTextDialog23updateImportButtonStateEv(ptr noundef align 8 dereferenceable_or_null(305) %0) #4 align 2 {
  %2 = alloca ptr, align 8
  store ptr %0, ptr %2, align 8
  %3 = load ptr, ptr %2, align 8
  %4 = getelementptr inbounds nuw %class.ImportTextDialog, ptr %3, i32 0, i32 7
  %5 = load i8, ptr %4, align 8, !range !11, !noundef !12
  %6 = trunc i8 %5 to i1
  br i1 %6, label %7, label %80

7:                                                ; preds = %1
  %8 = getelementptr inbounds nuw %class.ImportTextDialog, ptr %3, i32 0, i32 8
  %9 = load i8, ptr %8, align 1, !range !11, !noundef !12
  %10 = trunc i8 %9 to i1
  br i1 %10, label %11, label %80

11:                                               ; preds = %7
  %12 = getelementptr inbounds nuw %class.ImportTextDialog, ptr %3, i32 0, i32 14
  %13 = load i8, ptr %12, align 1, !range !11, !noundef !12
  %14 = trunc i8 %13 to i1
  br i1 %14, label %15, label %80

15:                                               ; preds = %11
  %16 = getelementptr inbounds nuw %class.ImportTextDialog, ptr %3, i32 0, i32 15
  %17 = load i8, ptr %16, align 8, !range !11, !noundef !12
  %18 = trunc i8 %17 to i1
  br i1 %18, label %19, label %80

19:                                               ; preds = %15
  %20 = getelementptr inbounds nuw %class.ImportTextDialog, ptr %3, i32 0, i32 16
  %21 = load i8, ptr %20, align 1, !range !11, !noundef !12
  %22 = trunc i8 %21 to i1
  br i1 %22, label %23, label %80

23:                                               ; preds = %19
  %24 = getelementptr inbounds nuw %class.ImportTextDialog, ptr %3, i32 0, i32 17
  %25 = load i8, ptr %24, align 2, !range !11, !noundef !12
  %26 = trunc i8 %25 to i1
  br i1 %26, label %27, label %80

27:                                               ; preds = %23
  %28 = getelementptr inbounds nuw %class.ImportTextDialog, ptr %3, i32 0, i32 18
  %29 = load i8, ptr %28, align 1, !range !11, !noundef !12
  %30 = trunc i8 %29 to i1
  br i1 %30, label %31, label %80

31:                                               ; preds = %27
  %32 = getelementptr inbounds nuw %class.ImportTextDialog, ptr %3, i32 0, i32 19
  %33 = load i8, ptr %32, align 4, !range !11, !noundef !12
  %34 = trunc i8 %33 to i1
  br i1 %34, label %35, label %80

35:                                               ; preds = %31
  %36 = getelementptr inbounds nuw %class.ImportTextDialog, ptr %3, i32 0, i32 20
  %37 = load i8, ptr %36, align 1, !range !11, !noundef !12
  %38 = trunc i8 %37 to i1
  br i1 %38, label %39, label %80

39:                                               ; preds = %35
  %40 = getelementptr inbounds nuw %class.ImportTextDialog, ptr %3, i32 0, i32 21
  %41 = load i8, ptr %40, align 2, !range !11, !noundef !12
  %42 = trunc i8 %41 to i1
  br i1 %42, label %43, label %80

43:                                               ; preds = %39
  %44 = getelementptr inbounds nuw %class.ImportTextDialog, ptr %3, i32 0, i32 22
  %45 = load i8, ptr %44, align 1, !range !11, !noundef !12
  %46 = trunc i8 %45 to i1
  br i1 %46, label %47, label %80

47:                                               ; preds = %43
  %48 = getelementptr inbounds nuw %class.ImportTextDialog, ptr %3, i32 0, i32 23
  %49 = load i8, ptr %48, align 8, !range !11, !noundef !12
  %50 = trunc i8 %49 to i1
  br i1 %50, label %51, label %80

51:                                               ; preds = %47
  %52 = getelementptr inbounds nuw %class.ImportTextDialog, ptr %3, i32 0, i32 5
  %53 = getelementptr inbounds nuw %struct.text_import_info_t, ptr %52, i32 0, i32 2
  %54 = load i32, ptr %53, align 8
  %55 = icmp eq i32 %54, 1
  br i1 %55, label %56, label %72

56:                                               ; preds = %51
  %57 = getelementptr inbounds nuw %class.ImportTextDialog, ptr %3, i32 0, i32 9
  %58 = load i8, ptr %57, align 2, !range !11, !noundef !12
  %59 = trunc i8 %58 to i1
  br i1 %59, label %60, label %72

60:                                               ; preds = %56
  %61 = getelementptr inbounds nuw %class.ImportTextDialog, ptr %3, i32 0, i32 10
  %62 = load i8, ptr %61, align 1, !range !11, !noundef !12
  %63 = trunc i8 %62 to i1
  br i1 %63, label %64, label %77

64:                                               ; preds = %60
  %65 = getelementptr inbounds nuw %class.ImportTextDialog, ptr %3, i32 0, i32 11
  %66 = load i8, ptr %65, align 4, !range !11, !noundef !12
  %67 = trunc i8 %66 to i1
  br i1 %67, label %68, label %72

68:                                               ; preds = %64
  %69 = getelementptr inbounds nuw %class.ImportTextDialog, ptr %3, i32 0, i32 12
  %70 = load i8, ptr %69, align 1, !range !11, !noundef !12
  %71 = trunc i8 %70 to i1
  br i1 %71, label %77, label %72

72:                                               ; preds = %68, %64, %56, %51
  %73 = getelementptr inbounds nuw %class.ImportTextDialog, ptr %3, i32 0, i32 5
  %74 = getelementptr inbounds nuw %struct.text_import_info_t, ptr %73, i32 0, i32 2
  %75 = load i32, ptr %74, align 8
  %76 = icmp eq i32 %75, 0
  br i1 %76, label %77, label %80

77:                                               ; preds = %72, %68, %60
  %78 = getelementptr inbounds nuw %class.ImportTextDialog, ptr %3, i32 0, i32 3
  %79 = load ptr, ptr %78, align 8
  call void @_ZN7QWidget10setEnabledEb(ptr noundef align 8 dereferenceable_or_null(40) %79, i1 noundef zeroext true)
  br label %83

80:                                               ; preds = %72, %47, %43, %39, %35, %31, %27, %23, %19, %15, %11, %7, %1
  %81 = getelementptr inbounds nuw %class.ImportTextDialog, ptr %3, i32 0, i32 3
  %82 = load ptr, ptr %81, align 8
  call void @_ZN7QWidget10setEnabledEb(ptr noundef align 8 dereferenceable_or_null(40) %82, i1 noundef zeroext false)
  br label %83

83:                                               ; preds = %80, %77
  ret void
}

; Function Attrs: inlinehint mustprogress nounwind null_pointer_is_valid sspstrong uwtable
define linkonce_odr noundef i64 @_ZNK7QString6lengthEv(ptr noundef align 8 dereferenceable_or_null(24) %0) #2 comdat align 2 {
  %2 = alloca ptr, align 8
  store ptr %0, ptr %2, align 8
  %3 = load ptr, ptr %2, align 8
  %4 = getelementptr inbounds nuw %class.QString, ptr %3, i32 0, i32 0
  %5 = getelementptr inbounds nuw %struct.QArrayDataPointer, ptr %4, i32 0, i32 2
  %6 = load i64, ptr %5, align 8
  ret i64 %6
}

; Function Attrs: mustprogress null_pointer_is_valid sspstrong uwtable
define void @_ZN16ImportTextDialog38on_dirInIndicationLineEdit_textChangedERK7QString(ptr noundef align 8 dereferenceable_or_null(305) %0, ptr noundef align 8 dereferenceable(24) %1) #4 align 2 {
  %3 = alloca ptr, align 8
  %4 = alloca ptr, align 8
  store ptr %0, ptr %3, align 8
  store ptr %1, ptr %4, align 8
  %5 = load ptr, ptr %3, align 8
  %6 = load ptr, ptr %4, align 8
  %7 = call noundef i64 @_ZNK7QString6lengthEv(ptr noundef align 8 dereferenceable_or_null(24) %6)
  %8 = icmp sgt i64 %7, 0
  %9 = getelementptr inbounds nuw %class.ImportTextDialog, ptr %5, i32 0, i32 11
  %10 = zext i1 %8 to i8
  store i8 %10, ptr %9, align 4
  call void @_ZN16ImportTextDialog23updateImportButtonStateEv(ptr noundef align 8 dereferenceable_or_null(305) %5)
  ret void
}