; Function Attrs: mustprogress null_pointer_is_valid sspstrong uwtable
define void @_ZN16ImportTextDialog38on_dirInIndicationLineEdit_textChangedERK7QString(ptr noundef align 8 captures(none) dereferenceable_or_null(305) initializes((292, 293)) %0, ptr noundef readonly align 8 captures(none) dereferenceable(24) %1) local_unnamed_addr #2 align 2 {
  %3 = getelementptr inbounds nuw i8, ptr %1, i64 16
  %4 = load i64, ptr %3, align 8
  %5 = icmp sgt i64 %4, 0
  %6 = getelementptr inbounds nuw i8, ptr %0, i64 292
  %7 = zext i1 %5 to i8
  store i8 %7, ptr %6, align 4
  %8 = getelementptr inbounds nuw i8, ptr %0, i64 288
  %9 = load i8, ptr %8, align 8, !range !11, !noundef !12
  %10 = trunc nuw i8 %9 to i1
  br i1 %10, label %11, label %.thread.i

11:                                               ; preds = %2
  %12 = getelementptr inbounds nuw i8, ptr %0, i64 289
  %13 = load i8, ptr %12, align 1, !range !11, !noundef !12
  %14 = trunc nuw i8 %13 to i1
  br i1 %14, label %15, label %.thread.i

15:                                               ; preds = %11
  %16 = getelementptr inbounds nuw i8, ptr %0, i64 295
  %17 = load i8, ptr %16, align 1, !range !11, !noundef !12
  %18 = trunc nuw i8 %17 to i1
  br i1 %18, label %19, label %.thread.i

19:                                               ; preds = %15
  %20 = getelementptr inbounds nuw i8, ptr %0, i64 296
  %21 = load i8, ptr %20, align 8, !range !11, !noundef !12
  %22 = trunc nuw i8 %21 to i1
  br i1 %22, label %23, label %.thread.i

23:                                               ; preds = %19
  %24 = getelementptr inbounds nuw i8, ptr %0, i64 297
  %25 = load i8, ptr %24, align 1, !range !11, !noundef !12
  %26 = trunc nuw i8 %25 to i1
  br i1 %26, label %27, label %.thread.i

27:                                               ; preds = %23
  %28 = getelementptr inbounds nuw i8, ptr %0, i64 298
  %29 = load i8, ptr %28, align 2, !range !11, !noundef !12
  %30 = trunc nuw i8 %29 to i1
  br i1 %30, label %31, label %.thread.i

31:                                               ; preds = %27
  %32 = getelementptr inbounds nuw i8, ptr %0, i64 299
  %33 = load i8, ptr %32, align 1, !range !11, !noundef !12
  %34 = trunc nuw i8 %33 to i1
  br i1 %34, label %35, label %.thread.i

35:                                               ; preds = %31
  %36 = getelementptr inbounds nuw i8, ptr %0, i64 300
  %37 = load i8, ptr %36, align 4, !range !11, !noundef !12
  %38 = trunc nuw i8 %37 to i1
  br i1 %38, label %39, label %.thread.i

39:                                               ; preds = %35
  %40 = getelementptr inbounds nuw i8, ptr %0, i64 301
  %41 = load i8, ptr %40, align 1, !range !11, !noundef !12
  %42 = trunc nuw i8 %41 to i1
  br i1 %42, label %43, label %.thread.i

43:                                               ; preds = %39
  %44 = getelementptr inbounds nuw i8, ptr %0, i64 302
  %45 = load i8, ptr %44, align 2, !range !11, !noundef !12
  %46 = trunc nuw i8 %45 to i1
  br i1 %46, label %47, label %.thread.i

47:                                               ; preds = %43
  %48 = getelementptr inbounds nuw i8, ptr %0, i64 303
  %49 = load i8, ptr %48, align 1, !range !11, !noundef !12
  %50 = trunc nuw i8 %49 to i1
  br i1 %50, label %51, label %.thread.i

51:                                               ; preds = %47
  %52 = getelementptr inbounds nuw i8, ptr %0, i64 304
  %53 = load i8, ptr %52, align 8, !range !11, !noundef !12
  %54 = trunc nuw i8 %53 to i1
  br i1 %54, label %55, label %.thread.i

55:                                               ; preds = %51
  %56 = getelementptr inbounds nuw i8, ptr %0, i64 88
  %57 = load i32, ptr %56, align 8
  switch i32 %57, label %.thread.i [
    i32 1, label %58
    i32 0, label %_ZN16ImportTextDialog23updateImportButtonStateEv.exit
  ]

58:                                               ; preds = %55
  %59 = getelementptr inbounds nuw i8, ptr %0, i64 290
  %60 = load i8, ptr %59, align 2, !range !11, !noundef !12
  %61 = trunc nuw i8 %60 to i1
  br i1 %61, label %62, label %.thread.i

62:                                               ; preds = %58
  %63 = getelementptr inbounds nuw i8, ptr %0, i64 291
  %64 = load i8, ptr %63, align 1, !range !11, !noundef !12
  %65 = trunc nuw i8 %64 to i1
  br i1 %65, label %66, label %_ZN16ImportTextDialog23updateImportButtonStateEv.exit

66:                                               ; preds = %62
  br i1 %5, label %67, label %.thread.i

67:                                               ; preds = %66
  %68 = getelementptr inbounds nuw i8, ptr %0, i64 293
  %69 = load i8, ptr %68, align 1, !range !11, !noundef !12
  %70 = trunc nuw i8 %69 to i1
  br i1 %70, label %_ZN16ImportTextDialog23updateImportButtonStateEv.exit, label %.thread.i

.thread.i:                                        ; preds = %67, %66, %58, %55, %51, %47, %43, %39, %35, %31, %27, %23, %19, %15, %11, %2
  br label %_ZN16ImportTextDialog23updateImportButtonStateEv.exit

_ZN16ImportTextDialog23updateImportButtonStateEv.exit: ; preds = %55, %62, %67, %.thread.i
  %.sink1.i = phi i1 [ false, %.thread.i ], [ true, %55 ], [ true, %67 ], [ true, %62 ]
  %71 = getelementptr inbounds nuw i8, ptr %0, i64 56
  %72 = load ptr, ptr %71, align 8
  tail call void @_ZN7QWidget10setEnabledEb(ptr noundef align 8 dereferenceable_or_null(40) %72, i1 noundef zeroext %.sink1.i)
  ret void
}